target datalayout = "e-m:e-p270:32:32-p271:32:32-p272:64:64-i64:64-i128:128-f80:128-n8:16:32:64-S128"
target triple = "x86_64-pc-linux-gnu"

%struct.__va_list_tag = type { i32, i32, ptr, ptr }

; Function Attrs: nounwind uwtable
define void @errorf(ptr noundef %0, ptr noundef %1, i32 noundef %2, ptr noundef %3, ...) #0 {
  %5 = alloca ptr, align 8
  %6 = alloca ptr, align 8
  %7 = alloca i32, align 4
  %8 = alloca ptr, align 8
  %9 = alloca [1 x %struct.__va_list_tag], align 16
  store ptr %0, ptr %5, align 8, !tbaa !25
  store ptr %1, ptr %6, align 8, !tbaa !25
  store i32 %2, ptr %7, align 4, !tbaa !3
  store ptr %3, ptr %8, align 8, !tbaa !11
  call void @llvm.lifetime.start.p0(i64 24, ptr %9) #7
  %10 = getelementptr inbounds [1 x %struct.__va_list_tag], ptr %9, i64 0, i64 0
  call void @llvm.va_start.p0(ptr %10)
  %11 = load ptr, ptr %6, align 8, !tbaa !25
  %12 = icmp ne ptr %11, null
  br i1 %12, label %13, label %19

13:                                               ; preds = %4
  %14 = load ptr, ptr %5, align 8, !tbaa !25
  %15 = icmp ne ptr %14, null
  br i1 %15, label %16, label %19

16:                                               ; preds = %13
  %17 = load ptr, ptr %5, align 8, !tbaa !25
  %18 = load ptr, ptr %17, align 8, !tbaa !11
  br label %21

19:                                               ; preds = %13, %4
  %20 = load ptr, ptr %5, align 8, !tbaa !25
  br label %21

21:                                               ; preds = %19, %16
  %22 = phi ptr [ %18, %16 ], [ %20, %19 ]
  %23 = load i32, ptr %7, align 4, !tbaa !3
  %24 = load ptr, ptr %8, align 8, !tbaa !11
  %25 = getelementptr inbounds [1 x %struct.__va_list_tag], ptr %9, i64 0, i64 0
  call void @errorv(ptr noundef %22, i32 noundef %23, ptr noundef %24, ptr noundef %25)
  %26 = getelementptr inbounds [1 x %struct.__va_list_tag], ptr %9, i64 0, i64 0
  call void @llvm.va_end.p0(ptr %26)
  call void @llvm.lifetime.end.p0(i64 24, ptr %9) #7
  ret void
}