; Function Attrs: nounwind uwtable
define void @errorf(ptr noundef %0, ptr noundef readnone captures(address_is_null) %1, i32 noundef %2, ptr noundef readonly captures(none) %3, ...) local_unnamed_addr #2 {
  %5 = alloca [1 x %struct.__va_list_tag], align 16
  call void @llvm.lifetime.start.p0(i64 24, ptr nonnull %5) #15
  call void @llvm.va_start.p0(ptr nonnull %5)
  %6 = icmp ne ptr %1, null
  %7 = icmp ne ptr %0, null
  %or.cond = and i1 %7, %6
  br i1 %or.cond, label %8, label %10

8:                                                ; preds = %4
  %9 = load ptr, ptr %0, align 8, !tbaa !22
  br label %10

10:                                               ; preds = %4, %8
  %11 = phi ptr [ %9, %8 ], [ %0, %4 ]
  call void @errorv(ptr noundef %11, i32 noundef %2, ptr noundef %3, ptr noundef nonnull %5)
  call void @llvm.va_end.p0(ptr nonnull %5)
  call void @llvm.lifetime.end.p0(i64 24, ptr nonnull %5) #15
  ret void
}